Certificate:
    Data:
        Version: 3 (0x2)
        Serial Number:
            cb:b8:53:ac:57:06:e8:e1
    Signature Algorithm: sha256WithRSAEncryption
        Issuer: C = AU, ST = Some-State, O = Internet Widgits Pty Ltd, CN = postgres
        Validity
            Not Before: Oct  9 13:34:33 2017 GMT
            Not After : Oct  9 13:34:33 2019 GMT
        Subject: C = AU, ST = Some-State, O = Internet Widgits Pty Ltd, CN = postgres
        Subject Public Key Info:
            Public Key Algorithm: rsaEncryption
                Public-Key: (2048 bit)
                Modulus:
                    00:d4:ee:d6:36:da:ec:93:4e:ff:f3:ea:19:13:22:
                    d0:b5:3a:49:d7:6f:1e:2d:1c:d1:c9:37:9f:74:91:
                    ce:80:14:8c:9a:ba:57:3a:26:6a:15:77:87:bb:8f:
                    22:36:a5:9d:33:fc:4e:6c:3d:1f:91:8c:40:52:9b:
                    48:2b:0d:09:c1:c2:a5:e7:30:cc:64:df:b9:5c:f1:
                    83:55:d8:93:a0:8c:f5:43:4c:3e:b2:27:45:40:c5:
                    f6:8b:0c:6d:66:85:90:55:cc:48:e2:6a:cf:a2:35:
                    e1:59:e3:f5:df:21:9c:9b:69:3d:c9:1a:df:89:66:
                    25:ca:4e:39:e5:7e:97:0b:80:61:e6:74:1c:37:37:
                    f0:e3:e6:c5:8d:0c:b4:62:07:bb:54:d1:3f:9e:d1:
                    0d:df:1b:52:3a:3a:5e:54:86:e0:c9:7d:47:1e:3b:
                    8b:b3:8b:1a:c6:c4:ff:f2:d2:5d:c7:05:d0:b9:9d:
                    ec:76:1d:2f:4a:ff:6d:c5:e5:0b:97:37:7a:fd:c8:
                    1a:d7:1e:d9:49:99:43:6a:de:d0:96:84:61:22:14:
                    7c:ad:7e:fb:90:8a:9a:2a:e7:43:c2:e8:41:f9:42:
                    ea:d0:fc:42:5c:bf:ac:a6:48:45:e7:35:1a:08:eb:
                    06:65:b1:ff:b1:ec:cc:3d:f8:d8:6b:ef:b2:d5:da:
                    f3:31
                Exponent: 65537 (0x10001)
        X509v3 extensions:
            X509v3 Subject Key Identifier: 
                44:C3:07:28:04:C3:BE:1F:F0:81:00:C2:47:27:AE:DC:D1:03:9A:F3
            X509v3 Authority Key Identifier: 
                keyid:44:C3:07:28:04:C3:BE:1F:F0:81:00:C2:47:27:AE:DC:D1:03:9A:F3

            X509v3 Basic Constraints: critical
                CA:TRUE
    Signature Algorithm: sha256WithRSAEncryption
         01:91:e0:3a:88:47:cf:d4:6d:e4:53:e3:82:3f:d3:a9:f0:8a:
         7f:88:d8:d3:90:a9:95:d0:90:68:37:19:88:3e:ac:ab:e6:56:
         40:fe:bc:df:d1:75:44:f9:83:7e:63:a0:ed:b5:7f:49:cf:cf:
         1e:6b:a2:94:30:6a:3a:c7:06:e3:a2:c8:13:8d:31:46:3b:9f:
         51:f2:dd:e7:10:5e:39:4f:38:ae:46:23:18:9c:5f:21:ae:ff:
         22:99:e4:71:12:7f:cf:51:72:28:6e:43:88:18:81:0b:f5:5c:
         51:5e:6a:72:00:23:14:d1:26:07:36:50:ea:b6:56:d3:e5:35:
         fa:22:20:81:7f:1c:a6:ef:07:f0:1d:35:2a:2f:75:99:ba:e5:
         77:df:dd:3a:d1:38:32:d1:b6:2c:8a:e3:13:90:18:7c:12:fb:
         dd:03:29:0d:29:05:0f:8d:f4:48:27:ad:10:74:b5:d6:ca:ec:
         4b:8f:45:78:6e:08:ed:1e:3b:25:70:05:8d:08:f9:48:9a:3a:
         52:e5:53:93:3a:d9:53:14:9d:43:87:fd:a9:d5:66:e8:a6:55:
         cf:13:a0:e3:fb:b9:21:ed:97:e1:6e:a6:e9:89:2e:b3:a7:fc:
         95:68:f2:06:ae:b5:1b:ef:57:90:4d:a5:3f:8e:23:22:c0:51:
         f7:4e:d9:82
-----BEGIN CERTIFICATE-----
MIIDhjCCAm6gAwIBAgIJAMu4U6xXBujhMA0GCSqGSIb3DQEBCwUAMFgxCzAJBgNV
BAYTAkFVMRMwEQYDVQQIDApTb21lLVN0YXRlMSEwHwYDVQQKDBhJbnRlcm5ldCBX
aWRnaXRzIFB0eSBMdGQxETAPBgNVBAMMCHBvc3RncmVzMB4XDTE3MTAwOTEzMzQz
M1oXDTE5MTAwOTEzMzQzM1owWDELMAkGA1UEBhMCQVUxEzARBgNVBAgMClNvbWUt
U3RhdGUxITAfBgNVBAoMGEludGVybmV0IFdpZGdpdHMgUHR5IEx0ZDERMA8GA1UE
AwwIcG9zdGdyZXMwggEiMA0GCSqGSIb3DQEBAQUAA4IBDwAwggEKAoIBAQDU7tY2
2uyTTv/z6hkTItC1OknXbx4tHNHJN590kc6AFIyaulc6JmoVd4e7jyI2pZ0z/E5s
PR+RjEBSm0grDQnBwqXnMMxk37lc8YNV2JOgjPVDTD6yJ0VAxfaLDG1mhZBVzEji
as+iNeFZ4/XfIZybaT3JGt+JZiXKTjnlfpcLgGHmdBw3N/Dj5sWNDLRiB7tU0T+e
0Q3fG1I6Ol5UhuDJfUceO4uzixrGxP/y0l3HBdC5nex2HS9K/23F5QuXN3r9yBrX
HtlJmUNq3tCWhGEiFHytfvuQipoq50PC6EH5QurQ/EJcv6ymSEXnNRoI6wZlsf+x
7Mw9+Nhr77LV2vMxAgMBAAGjUzBRMB0GA1UdDgQWBBREwwcoBMO+H/CBAMJHJ67c
0QOa8zAfBgNVHSMEGDAWgBREwwcoBMO+H/CBAMJHJ67c0QOa8zAPBgNVHRMBAf8E
BTADAQH/MA0GCSqGSIb3DQEBCwUAA4IBAQABkeA6iEfP1G3kU+OCP9Op8Ip/iNjT
kKmV0JBoNxmIPqyr5lZA/rzf0XVE+YN+Y6DttX9Jz88ea6KUMGo6xwbjosgTjTFG
O59R8t3nEF45TziuRiMYnF8hrv8imeRxEn/PUXIobkOIGIEL9VxRXmpyACMU0SYH
NlDqtlbT5TX6IiCBfxym7wfwHTUqL3WZuuV339060Tgy0bYsiuMTkBh8EvvdAykN
KQUPjfRIJ60QdLXWyuxLj0V4bgjtHjslcAWNCPlImjpS5VOTOtlTFJ1Dh/2p1Wbo
plXPE6Dj+7kh7ZfhbqbpiS6zp/yVaPIGrrUb71eQTaU/jiMiwFH3TtmC
-----END CERTIFICATE-----
